target datalayout = "e-m:e-p270:32:32-p271:32:32-p272:64:64-i64:64-i128:128-f80:128-n8:16:32:64-S128"
target triple = "x86_64-pc-linux-gnu"

%struct.evp_test_st = type { %struct.stanza_st, ptr, i32, ptr, ptr, ptr, ptr, ptr, ptr, i32 }
%struct.stanza_st = type { ptr, ptr, i32, i32, i32, i32, i32, i32, [150 x %struct.pair_st], ptr, [32768 x i8] }
%struct.pair_st = type { ptr, ptr }
%struct.DIGESTSIGN_DATA = type { i32, i32, ptr, ptr, ptr, ptr, ptr, i64, ptr, i64, i32, ptr, ptr, ptr }

@.str.29 = private unnamed_addr constant [27 x i8] c"../openssl/test/evp_test.c\00", align 1
@.str.96 = private unnamed_addr constant [30 x i8] c"got = OPENSSL_malloc(got_len)\00", align 1
@.str.112 = private unnamed_addr constant [4 x i8] c"got\00", align 1
@.str.213 = private unnamed_addr constant [9 x i8] c"expected\00", align 1
@.str.256 = private unnamed_addr constant [15 x i8] c"MALLOC_FAILURE\00", align 1
@.str.258 = private unnamed_addr constant [19 x i8] c"SIGNATURE_MISMATCH\00", align 1
@.str.408 = private unnamed_addr constant [24 x i8] c"DIGESTSIGN_LENGTH_ERROR\00", align 1
@.str.409 = private unnamed_addr constant [17 x i8] c"DIGESTSIGN_ERROR\00", align 1

; Function Attrs: nounwind uwtable
define internal i32 @memory_err_compare(ptr noundef %0, ptr noundef %1, ptr noundef %2, i64 noundef %3, ptr noundef %4, i64 noundef %5) #0 {
  %7 = alloca ptr, align 8
  %8 = alloca ptr, align 8
  %9 = alloca ptr, align 8
  %10 = alloca i64, align 8
  %11 = alloca ptr, align 8
  %12 = alloca i64, align 8
  %13 = alloca i32, align 4
  store ptr %0, ptr %7, align 8, !tbaa !15
  store ptr %1, ptr %8, align 8, !tbaa !4
  store ptr %2, ptr %9, align 8, !tbaa !97
  store i64 %3, ptr %10, align 8, !tbaa !13
  store ptr %4, ptr %11, align 8, !tbaa !97
  store i64 %5, ptr %12, align 8, !tbaa !13
  call void @llvm.lifetime.start.p0(i64 4, ptr %13) #10
  %14 = load ptr, ptr %7, align 8, !tbaa !15
  %15 = getelementptr inbounds nuw %struct.evp_test_st, ptr %14, i32 0, i32 6
  %16 = load ptr, ptr %15, align 8, !tbaa !57
  %17 = icmp ne ptr %16, null
  br i1 %17, label %18, label %34

18:                                               ; preds = %6
  %19 = load ptr, ptr %7, align 8, !tbaa !15
  %20 = getelementptr inbounds nuw %struct.evp_test_st, ptr %19, i32 0, i32 6
  %21 = load ptr, ptr %20, align 8, !tbaa !57
  %22 = load ptr, ptr %8, align 8, !tbaa !4
  %23 = call i32 @strcmp(ptr noundef %21, ptr noundef %22) #11
  %24 = icmp eq i32 %23, 0
  br i1 %24, label %25, label %34

25:                                               ; preds = %18
  %26 = load ptr, ptr %9, align 8, !tbaa !97
  %27 = load i64, ptr %10, align 8, !tbaa !13
  %28 = load ptr, ptr %11, align 8, !tbaa !97
  %29 = load i64, ptr %12, align 8, !tbaa !13
  %30 = call i32 @test_mem_ne(ptr noundef @.str.29, i32 noundef 332, ptr noundef @.str.213, ptr noundef @.str.112, ptr noundef %26, i64 noundef %27, ptr noundef %28, i64 noundef %29)
  %31 = icmp ne i32 %30, 0
  %32 = xor i1 %31, true
  %33 = zext i1 %32 to i32
  store i32 %33, ptr %13, align 4, !tbaa !9
  br label %40

34:                                               ; preds = %18, %6
  %35 = load ptr, ptr %9, align 8, !tbaa !97
  %36 = load i64, ptr %10, align 8, !tbaa !13
  %37 = load ptr, ptr %11, align 8, !tbaa !97
  %38 = load i64, ptr %12, align 8, !tbaa !13
  %39 = call i32 @test_mem_eq(ptr noundef @.str.29, i32 noundef 334, ptr noundef @.str.213, ptr noundef @.str.112, ptr noundef %35, i64 noundef %36, ptr noundef %37, i64 noundef %38)
  store i32 %39, ptr %13, align 4, !tbaa !9
  br label %40

40:                                               ; preds = %34, %25
  %41 = load i32, ptr %13, align 4, !tbaa !9
  %42 = icmp ne i32 %41, 0
  br i1 %42, label %47, label %43

43:                                               ; preds = %40
  %44 = load ptr, ptr %8, align 8, !tbaa !4
  %45 = load ptr, ptr %7, align 8, !tbaa !15
  %46 = getelementptr inbounds nuw %struct.evp_test_st, ptr %45, i32 0, i32 4
  store ptr %44, ptr %46, align 8, !tbaa !63
  br label %47

47:                                               ; preds = %43, %40
  %48 = load i32, ptr %13, align 4, !tbaa !9
  call void @llvm.lifetime.end.p0(i64 4, ptr %13) #10
  ret i32 %48
}

; Function Attrs: nounwind uwtable
define internal i32 @oneshot_digestsign_test_run(ptr noundef %0) #0 {
  %2 = alloca ptr, align 8
  %3 = alloca ptr, align 8
  %4 = alloca ptr, align 8
  %5 = alloca i64, align 8
  store ptr %0, ptr %2, align 8, !tbaa !15
  call void @llvm.lifetime.start.p0(i64 8, ptr %3) #10
  %6 = load ptr, ptr %2, align 8, !tbaa !15
  %7 = getelementptr inbounds nuw %struct.evp_test_st, ptr %6, i32 0, i32 8
  %8 = load ptr, ptr %7, align 8, !tbaa !66
  store ptr %8, ptr %3, align 8, !tbaa !97
  call void @llvm.lifetime.start.p0(i64 8, ptr %4) #10
  store ptr null, ptr %4, align 8, !tbaa !4
  call void @llvm.lifetime.start.p0(i64 8, ptr %5) #10
  %9 = load ptr, ptr %2, align 8, !tbaa !15
  %10 = load ptr, ptr %3, align 8, !tbaa !97
  %11 = call i32 @signverify_init(ptr noundef %9, ptr noundef %10)
  %12 = icmp ne i32 %11, 0
  br i1 %12, label %14, label %13

13:                                               ; preds = %1
  br label %71

14:                                               ; preds = %1
  %15 = load ptr, ptr %3, align 8, !tbaa !97
  %16 = getelementptr inbounds nuw %struct.DIGESTSIGN_DATA, ptr %15, i32 0, i32 3
  %17 = load ptr, ptr %16, align 8, !tbaa !216
  %18 = load ptr, ptr %3, align 8, !tbaa !97
  %19 = getelementptr inbounds nuw %struct.DIGESTSIGN_DATA, ptr %18, i32 0, i32 6
  %20 = load ptr, ptr %19, align 8, !tbaa !218
  %21 = load ptr, ptr %3, align 8, !tbaa !97
  %22 = getelementptr inbounds nuw %struct.DIGESTSIGN_DATA, ptr %21, i32 0, i32 7
  %23 = load i64, ptr %22, align 8, !tbaa !327
  %24 = call i32 @EVP_DigestSign(ptr noundef %17, ptr noundef null, ptr noundef %5, ptr noundef %20, i64 noundef %23)
  %25 = icmp ne i32 %24, 0
  br i1 %25, label %29, label %26

26:                                               ; preds = %14
  %27 = load ptr, ptr %2, align 8, !tbaa !15
  %28 = getelementptr inbounds nuw %struct.evp_test_st, ptr %27, i32 0, i32 4
  store ptr @.str.408, ptr %28, align 8, !tbaa !63
  br label %71

29:                                               ; preds = %14
  %30 = load i64, ptr %5, align 8, !tbaa !13
  %31 = call noalias ptr @CRYPTO_malloc(i64 noundef %30, ptr noundef @.str.29, i32 noundef 4729)
  store ptr %31, ptr %4, align 8, !tbaa !4
  %32 = call i32 @test_ptr(ptr noundef @.str.29, i32 noundef 4729, ptr noundef @.str.96, ptr noundef %31)
  %33 = icmp ne i32 %32, 0
  br i1 %33, label %37, label %34

34:                                               ; preds = %29
  %35 = load ptr, ptr %2, align 8, !tbaa !15
  %36 = getelementptr inbounds nuw %struct.evp_test_st, ptr %35, i32 0, i32 4
  store ptr @.str.256, ptr %36, align 8, !tbaa !63
  br label %71

37:                                               ; preds = %29
  %38 = load i64, ptr %5, align 8, !tbaa !13
  %39 = mul i64 %38, 2
  store i64 %39, ptr %5, align 8, !tbaa !13
  %40 = load ptr, ptr %3, align 8, !tbaa !97
  %41 = getelementptr inbounds nuw %struct.DIGESTSIGN_DATA, ptr %40, i32 0, i32 3
  %42 = load ptr, ptr %41, align 8, !tbaa !216
  %43 = load ptr, ptr %4, align 8, !tbaa !4
  %44 = load ptr, ptr %3, align 8, !tbaa !97
  %45 = getelementptr inbounds nuw %struct.DIGESTSIGN_DATA, ptr %44, i32 0, i32 6
  %46 = load ptr, ptr %45, align 8, !tbaa !218
  %47 = load ptr, ptr %3, align 8, !tbaa !97
  %48 = getelementptr inbounds nuw %struct.DIGESTSIGN_DATA, ptr %47, i32 0, i32 7
  %49 = load i64, ptr %48, align 8, !tbaa !327
  %50 = call i32 @EVP_DigestSign(ptr noundef %42, ptr noundef %43, ptr noundef %5, ptr noundef %46, i64 noundef %49)
  %51 = icmp ne i32 %50, 0
  br i1 %51, label %55, label %52

52:                                               ; preds = %37
  %53 = load ptr, ptr %2, align 8, !tbaa !15
  %54 = getelementptr inbounds nuw %struct.evp_test_st, ptr %53, i32 0, i32 4
  store ptr @.str.409, ptr %54, align 8, !tbaa !63
  br label %71

55:                                               ; preds = %37
  %56 = load ptr, ptr %2, align 8, !tbaa !15
  %57 = load ptr, ptr %3, align 8, !tbaa !97
  %58 = getelementptr inbounds nuw %struct.DIGESTSIGN_DATA, ptr %57, i32 0, i32 8
  %59 = load ptr, ptr %58, align 8, !tbaa !219
  %60 = load ptr, ptr %3, align 8, !tbaa !97
  %61 = getelementptr inbounds nuw %struct.DIGESTSIGN_DATA, ptr %60, i32 0, i32 9
  %62 = load i64, ptr %61, align 8, !tbaa !226
  %63 = load ptr, ptr %4, align 8, !tbaa !4
  %64 = load i64, ptr %5, align 8, !tbaa !13
  %65 = call i32 @memory_err_compare(ptr noundef %56, ptr noundef @.str.258, ptr noundef %59, i64 noundef %62, ptr noundef %63, i64 noundef %64)
  %66 = icmp ne i32 %65, 0
  br i1 %66, label %68, label %67

67:                                               ; preds = %55
  br label %71

68:                                               ; preds = %55
  %69 = load ptr, ptr %2, align 8, !tbaa !15
  %70 = getelementptr inbounds nuw %struct.evp_test_st, ptr %69, i32 0, i32 4
  store ptr null, ptr %70, align 8, !tbaa !63
  br label %71

71:                                               ; preds = %68, %67, %52, %34, %26, %13
  %72 = load ptr, ptr %4, align 8, !tbaa !4
  call void @CRYPTO_free(ptr noundef %72, ptr noundef @.str.29, i32 noundef 4746)
  call void @llvm.lifetime.end.p0(i64 8, ptr %5) #10
  call void @llvm.lifetime.end.p0(i64 8, ptr %4) #10
  call void @llvm.lifetime.end.p0(i64 8, ptr %3) #10
  ret i32 1
}