; Function Attrs: nounwind uwtable
define internal noundef i32 @oneshot_digestsign_test_run(ptr noundef captures(none) %0) #1 {
  %2 = alloca i64, align 8
  %3 = getelementptr inbounds nuw i8, ptr %0, i64 35272
  %4 = load ptr, ptr %3, align 8, !tbaa !20
  call void @llvm.lifetime.start.p0(i64 8, ptr nonnull %2) #10
  %5 = tail call fastcc i32 @signverify_init(ptr noundef %0, ptr noundef %4)
  %.not = icmp eq i32 %5, 0
  br i1 %.not, label %42, label %6

6:                                                ; preds = %1
  %7 = getelementptr inbounds nuw i8, ptr %4, i64 16
  %8 = load ptr, ptr %7, align 8, !tbaa !176
  %9 = getelementptr inbounds nuw i8, ptr %4, i64 40
  %10 = load ptr, ptr %9, align 8, !tbaa !178
  %11 = getelementptr inbounds nuw i8, ptr %4, i64 48
  %12 = load i64, ptr %11, align 8, !tbaa !267
  %13 = call i32 @EVP_DigestSign(ptr noundef %8, ptr noundef null, ptr noundef nonnull %2, ptr noundef %10, i64 noundef %12) #10
  %.not19 = icmp eq i32 %13, 0
  br i1 %.not19, label %.sink.split, label %14

14:                                               ; preds = %6
  %15 = load i64, ptr %2, align 8, !tbaa !35
  %16 = call noalias ptr @CRYPTO_malloc(i64 noundef %15, ptr noundef nonnull @.str.29, i32 noundef 4729) #10
  %17 = call i32 @test_ptr(ptr noundef nonnull @.str.29, i32 noundef 4729, ptr noundef nonnull @.str.96, ptr noundef %16) #10
  %.not20 = icmp eq i32 %17, 0
  br i1 %.not20, label %.sink.split, label %18

18:                                               ; preds = %14
  %19 = load i64, ptr %2, align 8, !tbaa !35
  %20 = shl i64 %19, 1
  store i64 %20, ptr %2, align 8, !tbaa !35
  %21 = load ptr, ptr %7, align 8, !tbaa !176
  %22 = load ptr, ptr %9, align 8, !tbaa !178
  %23 = load i64, ptr %11, align 8, !tbaa !267
  %24 = call i32 @EVP_DigestSign(ptr noundef %21, ptr noundef %16, ptr noundef nonnull %2, ptr noundef %22, i64 noundef %23) #10
  %.not21 = icmp eq i32 %24, 0
  br i1 %.not21, label %.sink.split, label %25

25:                                               ; preds = %18
  %26 = getelementptr inbounds nuw i8, ptr %4, i64 56
  %27 = load ptr, ptr %26, align 8, !tbaa !179
  %28 = getelementptr inbounds nuw i8, ptr %4, i64 64
  %29 = load i64, ptr %28, align 8, !tbaa !186
  %30 = load i64, ptr %2, align 8, !tbaa !35
  %31 = getelementptr inbounds nuw i8, ptr %0, i64 35256
  %32 = load ptr, ptr %31, align 8, !tbaa !24
  %.not.i = icmp eq ptr %32, null
  br i1 %.not.i, label %38, label %33

33:                                               ; preds = %25
  %34 = call i32 @strcmp(ptr noundef nonnull dereferenceable(1) %32, ptr noundef nonnull dereferenceable(19) @.str.258) #11
  %35 = icmp eq i32 %34, 0
  br i1 %35, label %36, label %38

36:                                               ; preds = %33
  %37 = call i32 @test_mem_ne(ptr noundef nonnull @.str.29, i32 noundef 332, ptr noundef nonnull @.str.213, ptr noundef nonnull @.str.112, ptr noundef %27, i64 noundef %29, ptr noundef %16, i64 noundef %30) #10
  %.not15.i.not = icmp eq i32 %37, 0
  br i1 %.not15.i.not, label %memory_err_compare.exit, label %.sink.split

38:                                               ; preds = %25, %33
  %39 = call i32 @test_mem_eq(ptr noundef nonnull @.str.29, i32 noundef 334, ptr noundef nonnull @.str.213, ptr noundef nonnull @.str.112, ptr noundef %27, i64 noundef %29, ptr noundef %16, i64 noundef %30) #10
  %40 = icmp eq i32 %39, 0
  br i1 %40, label %.sink.split, label %memory_err_compare.exit

memory_err_compare.exit:                          ; preds = %36, %38
  br label %.sink.split

.sink.split:                                      ; preds = %38, %36, %18, %14, %6, %memory_err_compare.exit
  %.str.258.sink = phi ptr [ null, %memory_err_compare.exit ], [ @.str.408, %6 ], [ @.str.256, %14 ], [ @.str.409, %18 ], [ @.str.258, %36 ], [ @.str.258, %38 ]
  %.0.ph = phi ptr [ %16, %memory_err_compare.exit ], [ null, %6 ], [ %16, %14 ], [ %16, %18 ], [ %16, %36 ], [ %16, %38 ]
  %41 = getelementptr inbounds nuw i8, ptr %0, i64 35240
  store ptr %.str.258.sink, ptr %41, align 8, !tbaa !64
  br label %42

42:                                               ; preds = %.sink.split, %1
  %.0 = phi ptr [ null, %1 ], [ %.0.ph, %.sink.split ]
  call void @CRYPTO_free(ptr noundef %.0, ptr noundef nonnull @.str.29, i32 noundef 4746) #10
  call void @llvm.lifetime.end.p0(i64 8, ptr nonnull %2) #10
  ret i32 1
}